target datalayout = "e-m:e-p270:32:32-p271:32:32-p272:64:64-i64:64-i128:128-f80:128-n8:16:32:64-S128"
target triple = "x86_64-pc-linux-gnu"

%struct.Scheduler = type { ptr, ptr, i32, ptr, i32, i32, %union.pthread_mutex_t, i32, i32, %union.pthread_mutex_t, %union.pthread_cond_t, ptr, i32, ptr, i32, ptr, i32, ptr, i32, ptr, i32, i32, i32, %union.pthread_mutex_t, i64 }
%union.pthread_cond_t = type { %struct.__pthread_cond_s }
%struct.__pthread_cond_s = type { %union.__atomic_wide_counter, %union.__atomic_wide_counter, [2 x i32], [2 x i32], i32, i32, [2 x i32] }
%union.__atomic_wide_counter = type { i64 }
%union.pthread_mutex_t = type { %struct.__pthread_mutex_s }
%struct.__pthread_mutex_s = type { i32, i32, i32, i32, i32, i16, i16, %struct.__pthread_internal_list }
%struct.__pthread_internal_list = type { ptr, ptr }
%struct.SchTask = type { ptr, %struct.SchedulerNode, ptr, ptr, i64, i32 }
%struct.SchedulerNode = type { i32, i32, i32 }
%struct.SchEnc = type { ptr, %struct.SchedulerNode, ptr, ptr, i32, [2 x i32], ptr, i32, %struct.SchTask, ptr, i32, ptr }
%struct.SchSyncQueue = type { ptr, ptr, %union.pthread_mutex_t, ptr, i32 }

@.str = private unnamed_addr constant [30 x i8] c"Assertion %s failed at %s:%d\0A\00", align 1
@.str.2 = private unnamed_addr constant [23 x i8] c"fftools/ffmpeg_sched.c\00", align 1
@.str.5 = private unnamed_addr constant [24 x i8] c"sq_idx < sch->nb_sq_enc\00", align 1
@.str.6 = private unnamed_addr constant [22 x i8] c"enc_idx < sch->nb_enc\00", align 1

; Function Attrs: nounwind uwtable
define i32 @sch_sq_add_enc(ptr noundef %0, i32 noundef %1, i32 noundef %2, i32 noundef %3, i64 noundef %4) #0 {
  %6 = alloca i32, align 4
  %7 = alloca ptr, align 8
  %8 = alloca i32, align 4
  %9 = alloca i32, align 4
  %10 = alloca i32, align 4
  %11 = alloca i64, align 8
  %12 = alloca ptr, align 8
  %13 = alloca ptr, align 8
  %14 = alloca i32, align 4
  %15 = alloca i32, align 4
  store ptr %0, ptr %7, align 8, !tbaa !10
  store i32 %1, ptr %8, align 4, !tbaa !12
  store i32 %2, ptr %9, align 4, !tbaa !12
  store i32 %3, ptr %10, align 4, !tbaa !12
  store i64 %4, ptr %11, align 8, !tbaa !92
  call void @llvm.lifetime.start.p0(i64 8, ptr %12) #9
  call void @llvm.lifetime.start.p0(i64 8, ptr %13) #9
  call void @llvm.lifetime.start.p0(i64 4, ptr %14) #9
  br label %16

16:                                               ; preds = %5
  %17 = load i32, ptr %8, align 4, !tbaa !12
  %18 = load ptr, ptr %7, align 8, !tbaa !10
  %19 = getelementptr inbounds nuw %struct.Scheduler, ptr %18, i32 0, i32 16
  %20 = load i32, ptr %19, align 8, !tbaa !72
  %21 = icmp ult i32 %17, %20
  br i1 %21, label %23, label %22

22:                                               ; preds = %16
  call void (ptr, i32, ptr, ...) @av_log(ptr noundef null, i32 noundef 0, ptr noundef @.str, ptr noundef @.str.5, ptr noundef @.str.2, i32 noundef 895)
  call void @abort() #10
  unreachable

23:                                               ; preds = %16
  br label %24

24:                                               ; preds = %23
  br label %25

25:                                               ; preds = %24
  %26 = load ptr, ptr %7, align 8, !tbaa !10
  %27 = getelementptr inbounds nuw %struct.Scheduler, ptr %26, i32 0, i32 15
  %28 = load ptr, ptr %27, align 8, !tbaa !73
  %29 = load i32, ptr %8, align 4, !tbaa !12
  %30 = zext i32 %29 to i64
  %31 = getelementptr inbounds nuw %struct.SchSyncQueue, ptr %28, i64 %30
  store ptr %31, ptr %12, align 8, !tbaa !74
  br label %32

32:                                               ; preds = %25
  %33 = load i32, ptr %9, align 4, !tbaa !12
  %34 = load ptr, ptr %7, align 8, !tbaa !10
  %35 = getelementptr inbounds nuw %struct.Scheduler, ptr %34, i32 0, i32 14
  %36 = load i32, ptr %35, align 8, !tbaa !68
  %37 = icmp ult i32 %33, %36
  br i1 %37, label %39, label %38

38:                                               ; preds = %32
  call void (ptr, i32, ptr, ...) @av_log(ptr noundef null, i32 noundef 0, ptr noundef @.str, ptr noundef @.str.6, ptr noundef @.str.2, i32 noundef 898)
  call void @abort() #10
  unreachable

39:                                               ; preds = %32
  br label %40

40:                                               ; preds = %39
  br label %41

41:                                               ; preds = %40
  %42 = load ptr, ptr %7, align 8, !tbaa !10
  %43 = getelementptr inbounds nuw %struct.Scheduler, ptr %42, i32 0, i32 13
  %44 = load ptr, ptr %43, align 8, !tbaa !69
  %45 = load i32, ptr %9, align 4, !tbaa !12
  %46 = zext i32 %45 to i64
  %47 = getelementptr inbounds nuw %struct.SchEnc, ptr %44, i64 %46
  store ptr %47, ptr %13, align 8, !tbaa !70
  %48 = load ptr, ptr %12, align 8, !tbaa !74
  %49 = getelementptr inbounds nuw %struct.SchSyncQueue, ptr %48, i32 0, i32 3
  %50 = load ptr, ptr %12, align 8, !tbaa !74
  %51 = getelementptr inbounds nuw %struct.SchSyncQueue, ptr %50, i32 0, i32 4
  %52 = load ptr, ptr %12, align 8, !tbaa !74
  %53 = getelementptr inbounds nuw %struct.SchSyncQueue, ptr %52, i32 0, i32 4
  %54 = load i32, ptr %53, align 8, !tbaa !134
  %55 = add i32 %54, 1
  %56 = call i32 @grow_array(ptr noundef %49, i32 noundef 4, ptr noundef %51, i32 noundef %55)
  store i32 %56, ptr %14, align 4, !tbaa !12
  %57 = load i32, ptr %14, align 4, !tbaa !12
  %58 = icmp slt i32 %57, 0
  br i1 %58, label %59, label %61

59:                                               ; preds = %41
  %60 = load i32, ptr %14, align 4, !tbaa !12
  store i32 %60, ptr %6, align 4
  store i32 1, ptr %15, align 4
  br label %102

61:                                               ; preds = %41
  %62 = load i32, ptr %9, align 4, !tbaa !12
  %63 = load ptr, ptr %12, align 8, !tbaa !74
  %64 = getelementptr inbounds nuw %struct.SchSyncQueue, ptr %63, i32 0, i32 3
  %65 = load ptr, ptr %64, align 8, !tbaa !135
  %66 = load ptr, ptr %12, align 8, !tbaa !74
  %67 = getelementptr inbounds nuw %struct.SchSyncQueue, ptr %66, i32 0, i32 4
  %68 = load i32, ptr %67, align 8, !tbaa !134
  %69 = sub i32 %68, 1
  %70 = zext i32 %69 to i64
  %71 = getelementptr inbounds nuw i32, ptr %65, i64 %70
  store i32 %62, ptr %71, align 4, !tbaa !12
  %72 = load ptr, ptr %12, align 8, !tbaa !74
  %73 = getelementptr inbounds nuw %struct.SchSyncQueue, ptr %72, i32 0, i32 0
  %74 = load ptr, ptr %73, align 8, !tbaa !130
  %75 = load i32, ptr %10, align 4, !tbaa !12
  %76 = call i32 @sq_add_stream(ptr noundef %74, i32 noundef %75)
  store i32 %76, ptr %14, align 4, !tbaa !12
  %77 = load i32, ptr %14, align 4, !tbaa !12
  %78 = icmp slt i32 %77, 0
  br i1 %78, label %79, label %81

79:                                               ; preds = %61
  %80 = load i32, ptr %14, align 4, !tbaa !12
  store i32 %80, ptr %6, align 4
  store i32 1, ptr %15, align 4
  br label %102

81:                                               ; preds = %61
  %82 = load i32, ptr %8, align 4, !tbaa !12
  %83 = load ptr, ptr %13, align 8, !tbaa !70
  %84 = getelementptr inbounds nuw %struct.SchEnc, ptr %83, i32 0, i32 5
  %85 = getelementptr inbounds [2 x i32], ptr %84, i64 0, i64 0
  store i32 %82, ptr %85, align 4, !tbaa !12
  %86 = load i32, ptr %14, align 4, !tbaa !12
  %87 = load ptr, ptr %13, align 8, !tbaa !70
  %88 = getelementptr inbounds nuw %struct.SchEnc, ptr %87, i32 0, i32 5
  %89 = getelementptr inbounds [2 x i32], ptr %88, i64 0, i64 1
  store i32 %86, ptr %89, align 4, !tbaa !12
  %90 = load i64, ptr %11, align 8, !tbaa !92
  %91 = icmp ne i64 %90, 9223372036854775807
  br i1 %91, label %92, label %101

92:                                               ; preds = %81
  %93 = load ptr, ptr %12, align 8, !tbaa !74
  %94 = getelementptr inbounds nuw %struct.SchSyncQueue, ptr %93, i32 0, i32 0
  %95 = load ptr, ptr %94, align 8, !tbaa !130
  %96 = load ptr, ptr %13, align 8, !tbaa !70
  %97 = getelementptr inbounds nuw %struct.SchEnc, ptr %96, i32 0, i32 5
  %98 = getelementptr inbounds [2 x i32], ptr %97, i64 0, i64 1
  %99 = load i32, ptr %98, align 4, !tbaa !12
  %100 = load i64, ptr %11, align 8, !tbaa !92
  call void @sq_limit_frames(ptr noundef %95, i32 noundef %99, i64 noundef %100)
  br label %101

101:                                              ; preds = %92, %81
  store i32 0, ptr %6, align 4
  store i32 1, ptr %15, align 4
  br label %102

102:                                              ; preds = %101, %79, %59
  call void @llvm.lifetime.end.p0(i64 4, ptr %14) #9
  call void @llvm.lifetime.end.p0(i64 8, ptr %13) #9
  call void @llvm.lifetime.end.p0(i64 8, ptr %12) #9
  %103 = load i32, ptr %6, align 4
  ret i32 %103
}