; Function Attrs: nounwind uwtable
define range(i32 -2147483648, 1) i32 @sch_sq_add_enc(ptr noundef readonly captures(none) %0, i32 noundef %1, i32 noundef %2, i32 noundef %3, i64 noundef %4) local_unnamed_addr #0 {
  %6 = getelementptr inbounds nuw i8, ptr %0, i64 216
  %7 = load i32, ptr %6, align 8, !tbaa !59
  %8 = icmp ult i32 %1, %7
  br i1 %8, label %10, label %9

9:                                                ; preds = %5
  tail call void (ptr, i32, ptr, ...) @av_log(ptr noundef null, i32 noundef 0, ptr noundef nonnull @.str, ptr noundef nonnull @.str.5, ptr noundef nonnull @.str.2, i32 noundef 895) #9
  tail call void @abort() #10
  unreachable

10:                                               ; preds = %5
  %11 = getelementptr inbounds nuw i8, ptr %0, i64 208
  %12 = load ptr, ptr %11, align 8, !tbaa !63
  %13 = zext i32 %1 to i64
  %14 = getelementptr inbounds nuw %struct.SchSyncQueue, ptr %12, i64 %13
  %15 = getelementptr inbounds nuw i8, ptr %0, i64 200
  %16 = load i32, ptr %15, align 8, !tbaa !49
  %17 = icmp ult i32 %2, %16
  br i1 %17, label %19, label %18

18:                                               ; preds = %10
  tail call void (ptr, i32, ptr, ...) @av_log(ptr noundef null, i32 noundef 0, ptr noundef nonnull @.str, ptr noundef nonnull @.str.6, ptr noundef nonnull @.str.2, i32 noundef 898) #9
  tail call void @abort() #10
  unreachable

19:                                               ; preds = %10
  %20 = getelementptr inbounds nuw i8, ptr %0, i64 192
  %21 = load ptr, ptr %20, align 8, !tbaa !60
  %22 = zext i32 %2 to i64
  %23 = getelementptr inbounds nuw i8, ptr %14, i64 56
  %24 = getelementptr inbounds nuw i8, ptr %14, i64 64
  %25 = load i32, ptr %24, align 8, !tbaa !117
  %26 = add i32 %25, 1
  %27 = tail call i32 @grow_array(ptr noundef nonnull %23, i32 noundef 4, ptr noundef nonnull %24, i32 noundef %26) #9
  %28 = icmp slt i32 %27, 0
  br i1 %28, label %43, label %29

29:                                               ; preds = %19
  %30 = load ptr, ptr %23, align 8, !tbaa !118
  %31 = load i32, ptr %24, align 8, !tbaa !117
  %32 = add i32 %31, -1
  %33 = zext i32 %32 to i64
  %34 = getelementptr inbounds nuw i32, ptr %30, i64 %33
  store i32 %2, ptr %34, align 4, !tbaa !68
  %35 = load ptr, ptr %14, align 8, !tbaa !113
  %36 = tail call i32 @sq_add_stream(ptr noundef %35, i32 noundef %3) #9
  %37 = icmp slt i32 %36, 0
  br i1 %37, label %43, label %38

38:                                               ; preds = %29
  %39 = getelementptr inbounds nuw %struct.SchEnc, ptr %21, i64 %22, i32 5
  store i32 %1, ptr %39, align 4, !tbaa !68
  %40 = getelementptr inbounds nuw i8, ptr %39, i64 4
  store i32 %36, ptr %40, align 4, !tbaa !68
  %.not = icmp eq i64 %4, 9223372036854775807
  br i1 %.not, label %43, label %41

41:                                               ; preds = %38
  %42 = load ptr, ptr %14, align 8, !tbaa !113
  tail call void @sq_limit_frames(ptr noundef %42, i32 noundef %36, i64 noundef %4) #9
  br label %43

43:                                               ; preds = %38, %41, %29, %19
  %.0 = phi i32 [ %27, %19 ], [ %36, %29 ], [ 0, %41 ], [ 0, %38 ]
  ret i32 %.0
}